target datalayout = "e-m:e-p270:32:32-p271:32:32-p272:64:64-i64:64-i128:128-f80:128-n8:16:32:64-S128"
target triple = "x86_64-pc-linux-gnu"

@.str.43 = private unnamed_addr constant [8 x i8] c"unknown\00", align 1

; Function Attrs: noreturn nounwind sspstrong uwtable
define internal void @unknown_keyword_error(i64 noundef %0, ptr noundef %1, i32 noundef %2) #12 {
  %4 = alloca i64, align 8
  %5 = alloca ptr, align 8
  %6 = alloca i32, align 4
  %7 = alloca i32, align 4
  %8 = alloca i64, align 8
  store i64 %0, ptr %4, align 8, !tbaa !7
  store ptr %1, ptr %5, align 8, !tbaa !40
  store i32 %2, ptr %6, align 4, !tbaa !39
  call void @llvm.lifetime.start.p0(i64 4, ptr %7) #23
  store i32 0, ptr %7, align 4, !tbaa !39
  br label %9

9:                                                ; preds = %22, %3
  %10 = load i32, ptr %7, align 4, !tbaa !39
  %11 = load i32, ptr %6, align 4, !tbaa !39
  %12 = icmp slt i32 %10, %11
  br i1 %12, label %13, label %25

13:                                               ; preds = %9
  call void @llvm.lifetime.start.p0(i64 8, ptr %8) #23
  %14 = load ptr, ptr %5, align 8, !tbaa !40
  %15 = load i32, ptr %7, align 4, !tbaa !39
  %16 = sext i32 %15 to i64
  %17 = getelementptr i64, ptr %14, i64 %16
  %18 = load i64, ptr %17, align 8, !tbaa !7
  %19 = call i64 @rb_id2sym(i64 noundef %18)
  store i64 %19, ptr %8, align 8, !tbaa !7
  %20 = load i64, ptr %4, align 8, !tbaa !7
  %21 = call i32 @rb_hash_stlike_delete(i64 noundef %20, ptr noundef %8, ptr noundef null)
  call void @llvm.lifetime.end.p0(i64 8, ptr %8) #23
  br label %22

22:                                               ; preds = %13
  %23 = load i32, ptr %7, align 4, !tbaa !39
  %24 = add i32 %23, 1
  store i32 %24, ptr %7, align 4, !tbaa !39
  br label %9, !llvm.loop !108

25:                                               ; preds = %9
  %26 = load i64, ptr %4, align 8, !tbaa !7
  %27 = call i64 @rb_hash_keys(i64 noundef %26)
  call void @rb_keyword_error(ptr noundef @.str.43, i64 noundef %27) #28
  unreachable
}