; Function Attrs: noreturn nounwind sspstrong uwtable
define internal fastcc void @unknown_keyword_error(i64 noundef range(i64 1, 0) %0, ptr noundef nonnull readonly captures(none) %1, i32 noundef %2) unnamed_addr #11 {
  %4 = alloca i64, align 8
  %5 = icmp sgt i32 %2, 0
  br i1 %5, label %.lr.ph.preheader, label %._crit_edge

.lr.ph.preheader:                                 ; preds = %3
  %wide.trip.count = zext nneg i32 %2 to i64
  br label %.lr.ph

.lr.ph:                                           ; preds = %.lr.ph.preheader, %.lr.ph
  %indvars.iv = phi i64 [ 0, %.lr.ph.preheader ], [ %indvars.iv.next, %.lr.ph ]
  call void @llvm.lifetime.start.p0(i64 8, ptr nonnull %4) #19
  %6 = getelementptr i64, ptr %1, i64 %indvars.iv
  %7 = load i64, ptr %6, align 8, !tbaa !29
  %8 = call i64 @rb_id2sym(i64 noundef %7) #19
  store i64 %8, ptr %4, align 8, !tbaa !29
  %9 = call i32 @rb_hash_stlike_delete(i64 noundef %0, ptr noundef nonnull %4, ptr noundef null) #19
  call void @llvm.lifetime.end.p0(i64 8, ptr nonnull %4) #19
  %indvars.iv.next = add nuw nsw i64 %indvars.iv, 1
  %exitcond.not = icmp eq i64 %indvars.iv.next, %wide.trip.count
  br i1 %exitcond.not, label %._crit_edge, label %.lr.ph, !llvm.loop !97

._crit_edge:                                      ; preds = %.lr.ph, %3
  %10 = call i64 @rb_hash_keys(i64 noundef %0) #19
  call fastcc void @rb_keyword_error(ptr noundef nonnull @.str.43, i64 noundef %10) #24
  unreachable
}